target datalayout = "e-m:e-p270:32:32-p271:32:32-p272:64:64-i64:64-i128:128-f80:128-n8:16:32:64-S128"
target triple = "x86_64-unknown-linux-gnu"

%struct.MigrationIncomingState = type { ptr, [2 x ptr], ptr, ptr, %struct.QemuSemaphore, %struct.QemuEvent, %struct.AnnounceTimer, i64, i8, %struct.QemuThread, i8, i8, %struct.QemuThread, i32, i32, ptr, %struct.QemuMutex, ptr, i32, ptr, %struct.QemuSemaphore, %struct.QemuThread, i32, %struct.QemuMutex, ptr, ptr, ptr, ptr, i32, ptr, ptr, %struct.QemuSemaphore, ptr, %struct.QemuSemaphore, %struct.QemuSemaphore, %struct.QemuSemaphore, ptr, ptr, i32, %struct.QemuMutex, %struct.QemuCond, i32 }
%struct.QemuEvent = type { i32, i8 }
%struct.AnnounceTimer = type { ptr, %struct.AnnounceParameters, i32, i32 }
%struct.AnnounceParameters = type { i64, i64, i64, i64, i8, ptr, ptr }
%struct.QemuThread = type { i64 }
%struct.QemuSemaphore = type { %struct.QemuMutex, %struct.QemuCond, i32 }
%struct.QemuMutex = type { %union.pthread_mutex_t, i8 }
%union.pthread_mutex_t = type { %struct.__pthread_mutex_s }
%struct.__pthread_mutex_s = type { i32, i32, i32, i32, i32, i16, i16, %struct.__pthread_internal_list }
%struct.__pthread_internal_list = type { ptr, ptr }
%struct.QemuCond = type { %union.pthread_cond_t, i8 }
%union.pthread_cond_t = type { %struct.__pthread_cond_s }
%struct.__pthread_cond_s = type { %union.__atomic_wide_counter, %union.__atomic_wide_counter, [2 x i32], [2 x i32], i32, i32, [2 x i32] }
%union.__atomic_wide_counter = type { i64 }
%struct.MigrationState = type { %struct.DeviceState, %struct.QemuThread, ptr, ptr, ptr, ptr, %struct.QemuSemaphore, ptr, %struct.QemuMutex, %struct.QemuSemaphore, i64, double, i64, i64, i64, %struct.MigrationParameters, i32, %struct.anon.2, double, i64, i64, i64, i64, i64, [23 x i8], i64, i32, i8, i8, i8, i8, %struct.QemuSemaphore, %struct.QemuSemaphore, %struct.QemuSemaphore, %struct.QemuEvent, i64, ptr, ptr, %struct.QemuMutex, i8, i8, i8, i8, %struct.QemuSemaphore, i8, i8, i8, i8, ptr, ptr, i8, i8 }
%struct.DeviceState = type { %struct.Object, ptr, ptr, i8, i8, i64, ptr, i32, i8, ptr, %struct.NamedGPIOListHead, %struct.NamedClockListHead, %struct.BusStateHead, i32, i32, i32, %struct.ResettableState, ptr, %struct.MemReentrancyGuard }
%struct.Object = type { ptr, ptr, ptr, i32, ptr }
%struct.NamedGPIOListHead = type { ptr }
%struct.NamedClockListHead = type { ptr }
%struct.BusStateHead = type { ptr }
%struct.ResettableState = type { i32, i8, i8 }
%struct.MemReentrancyGuard = type { i8 }
%struct.MigrationParameters = type { i8, i64, i8, i64, i8, i64, i8, i64, i8, i8, i8, i8, i8, i8, i8, i8, i8, i8, i8, i8, i8, i8, i8, i8, ptr, ptr, ptr, i8, i64, i8, i64, i8, i64, i8, i32, i8, i8, i8, i8, i8, i64, i8, i64, i8, i8, i8, i32, i8, i8, i8, i8, i8, ptr, i8, i64, i8, i64, i8, i32 }
%struct.anon.2 = type { ptr, %struct.QemuThread, i8, %struct.QemuSemaphore, %struct.QemuSemaphore }
%struct.QemuLockable = type { ptr, ptr, ptr }

@current_migration = internal global ptr null, align 8
@.str.2 = private unnamed_addr constant [30 x i8] c"../qemu/migration/migration.c\00", align 1
@current_incoming = internal global ptr null, align 8
@.str.5 = private unnamed_addr constant [18 x i8] c"current_migration\00", align 1
@__PRETTY_FUNCTION__.migrate_get_current = private unnamed_addr constant [42 x i8] c"MigrationState *migrate_get_current(void)\00", align 1
@.str.6 = private unnamed_addr constant [17 x i8] c"current_incoming\00", align 1
@__PRETTY_FUNCTION__.migration_incoming_get_current = private unnamed_addr constant [61 x i8] c"MigrationIncomingState *migration_incoming_get_current(void)\00", align 1
@qemu_mutex_lock_func = external global ptr, align 8
@__func__.qmp_migrate_pause = private unnamed_addr constant [18 x i8] c"qmp_migrate_pause\00", align 1
@.str.31 = private unnamed_addr constant [41 x i8] c"Postcopy migration is paused by the user\00", align 1
@.str.32 = private unnamed_addr constant [33 x i8] c"Failed to pause source migration\00", align 1
@.str.33 = private unnamed_addr constant [38 x i8] c"Failed to pause destination migration\00", align 1
@.str.34 = private unnamed_addr constant [91 x i8] c"migrate-pause is currently only supported during postcopy-active or postcopy-recover state\00", align 1

; Function Attrs: nounwind sspstrong uwtable
define internal void @qemu_lockable_unlock(ptr noundef %x) #0 {
entry:
  %x.addr = alloca ptr, align 8
  store ptr %x, ptr %x.addr, align 8
  %0 = load ptr, ptr %x.addr, align 8
  %unlock = getelementptr inbounds %struct.QemuLockable, ptr %0, i32 0, i32 2
  %1 = load ptr, ptr %unlock, align 8
  %2 = load ptr, ptr %x.addr, align 8
  %object = getelementptr inbounds %struct.QemuLockable, ptr %2, i32 0, i32 0
  %3 = load ptr, ptr %object, align 8
  call void %1(ptr noundef %3)
  ret void
}

; Function Attrs: nounwind sspstrong uwtable
define internal void @qemu_lockable_auto_unlock(ptr noundef %x) #0 {
entry:
  %x.addr = alloca ptr, align 8
  store ptr %x, ptr %x.addr, align 8
  %0 = load ptr, ptr %x.addr, align 8
  %tobool = icmp ne ptr %0, null
  br i1 %tobool, label %if.then, label %if.end

if.then:                                          ; preds = %entry
  %1 = load ptr, ptr %x.addr, align 8
  call void @qemu_lockable_unlock(ptr noundef %1)
  br label %if.end

if.end:                                           ; preds = %if.then, %entry
  ret void
}

; Function Attrs: nounwind sspstrong uwtable
define internal void @glib_autoptr_clear_QemuLockable(ptr noundef %_ptr) #0 {
entry:
  %_ptr.addr = alloca ptr, align 8
  store ptr %_ptr, ptr %_ptr.addr, align 8
  %0 = load ptr, ptr %_ptr.addr, align 8
  %tobool = icmp ne ptr %0, null
  br i1 %tobool, label %if.then, label %if.end

if.then:                                          ; preds = %entry
  %1 = load ptr, ptr %_ptr.addr, align 8
  call void @qemu_lockable_auto_unlock(ptr noundef %1)
  br label %if.end

if.end:                                           ; preds = %if.then, %entry
  ret void
}

; Function Attrs: nounwind sspstrong uwtable
define internal void @qemu_lockable_lock(ptr noundef %x) #0 {
entry:
  %x.addr = alloca ptr, align 8
  store ptr %x, ptr %x.addr, align 8
  %0 = load ptr, ptr %x.addr, align 8
  %lock = getelementptr inbounds %struct.QemuLockable, ptr %0, i32 0, i32 1
  %1 = load ptr, ptr %lock, align 8
  %2 = load ptr, ptr %x.addr, align 8
  %object = getelementptr inbounds %struct.QemuLockable, ptr %2, i32 0, i32 0
  %3 = load ptr, ptr %object, align 8
  call void %1(ptr noundef %3)
  ret void
}

; Function Attrs: nounwind sspstrong uwtable
define internal void @glib_autoptr_cleanup_QemuLockable(ptr noundef %_ptr) #0 {
entry:
  %_ptr.addr = alloca ptr, align 8
  store ptr %_ptr, ptr %_ptr.addr, align 8
  %0 = load ptr, ptr %_ptr.addr, align 8
  %1 = load ptr, ptr %0, align 8
  call void @glib_autoptr_clear_QemuLockable(ptr noundef %1)
  ret void
}

; Function Attrs: nounwind sspstrong uwtable
define internal ptr @qemu_lockable_auto_lock(ptr noundef %x) #0 {
entry:
  %x.addr = alloca ptr, align 8
  store ptr %x, ptr %x.addr, align 8
  %0 = load ptr, ptr %x.addr, align 8
  call void @qemu_lockable_lock(ptr noundef %0)
  %1 = load ptr, ptr %x.addr, align 8
  ret ptr %1
}

; Function Attrs: nounwind sspstrong uwtable
define dso_local void @migration_rp_kick(ptr noundef %s) #0 {
entry:
  %s.addr = alloca ptr, align 8
  store ptr %s, ptr %s.addr, align 8
  %0 = load ptr, ptr %s.addr, align 8
  %rp_state = getelementptr inbounds %struct.MigrationState, ptr %0, i32 0, i32 17
  %rp_sem = getelementptr inbounds %struct.anon.2, ptr %rp_state, i32 0, i32 3
  call void @qemu_sem_post(ptr noundef %rp_sem)
  ret void
}

; Function Attrs: nounwind sspstrong uwtable
define dso_local void @migrate_set_error(ptr noundef %s, ptr noundef %error) #0 {
entry:
  %x.addr.i = alloca ptr, align 8
  %lockable.addr.i = alloca ptr, align 8
  %s.addr = alloca ptr, align 8
  %error.addr = alloca ptr, align 8
  %qemu_lockable_auto9 = alloca ptr, align 8
  %.compoundliteral = alloca %struct.QemuLockable, align 8
  store ptr %s, ptr %s.addr, align 8
  store ptr %error, ptr %error.addr, align 8
  %0 = load ptr, ptr %s.addr, align 8
  %error_mutex = getelementptr inbounds %struct.MigrationState, ptr %0, i32 0, i32 38
  %object = getelementptr inbounds %struct.QemuLockable, ptr %.compoundliteral, i32 0, i32 0
  %1 = load ptr, ptr %s.addr, align 8
  %error_mutex1 = getelementptr inbounds %struct.MigrationState, ptr %1, i32 0, i32 38
  store ptr %error_mutex1, ptr %object, align 8
  %lock = getelementptr inbounds %struct.QemuLockable, ptr %.compoundliteral, i32 0, i32 1
  store ptr @qemu_mutex_lock, ptr %lock, align 8
  %unlock = getelementptr inbounds %struct.QemuLockable, ptr %.compoundliteral, i32 0, i32 2
  store ptr @qemu_mutex_unlock, ptr %unlock, align 8
  store ptr %error_mutex, ptr %x.addr.i, align 8
  store ptr %.compoundliteral, ptr %lockable.addr.i, align 8
  %2 = load ptr, ptr %x.addr.i, align 8
  %tobool.i = icmp ne ptr %2, null
  br i1 %tobool.i, label %cond.true.i, label %cond.false.i

cond.true.i:                                      ; preds = %entry
  %3 = load ptr, ptr %lockable.addr.i, align 8
  br label %qemu_make_lockable.exit

cond.false.i:                                     ; preds = %entry
  br label %qemu_make_lockable.exit

qemu_make_lockable.exit:                          ; preds = %cond.false.i, %cond.true.i
  %cond.i = phi ptr [ %3, %cond.true.i ], [ null, %cond.false.i ]
  %call2 = call ptr @qemu_lockable_auto_lock(ptr noundef %cond.i)
  store ptr %call2, ptr %qemu_lockable_auto9, align 8
  %4 = load ptr, ptr %s.addr, align 8
  %error3 = getelementptr inbounds %struct.MigrationState, ptr %4, i32 0, i32 37
  %5 = load ptr, ptr %error3, align 8
  %tobool = icmp ne ptr %5, null
  br i1 %tobool, label %if.end, label %if.then

if.then:                                          ; preds = %qemu_make_lockable.exit
  %6 = load ptr, ptr %error.addr, align 8
  %call4 = call ptr @error_copy(ptr noundef %6)
  %7 = load ptr, ptr %s.addr, align 8
  %error5 = getelementptr inbounds %struct.MigrationState, ptr %7, i32 0, i32 37
  store ptr %call4, ptr %error5, align 8
  br label %if.end

if.end:                                           ; preds = %if.then, %qemu_make_lockable.exit
  call void @glib_autoptr_cleanup_QemuLockable(ptr noundef %qemu_lockable_auto9)
  ret void
}

; Function Attrs: nounwind sspstrong uwtable
define dso_local zeroext i1 @migration_postcopy_is_alive(i32 noundef %state) #0 {
entry:
  %retval = alloca i1, align 1
  %state.addr = alloca i32, align 4
  store i32 %state, ptr %state.addr, align 4
  %0 = load i32, ptr %state.addr, align 4
  switch i32 %0, label %sw.default [
    i32 5, label %sw.bb
    i32 7, label %sw.bb
  ]

sw.bb:                                            ; preds = %entry, %entry
  store i1 true, ptr %retval, align 1
  br label %return

sw.default:                                       ; preds = %entry
  store i1 false, ptr %retval, align 1
  br label %return

return:                                           ; preds = %sw.default, %sw.bb
  %1 = load i1, ptr %retval, align 1
  ret i1 %1
}

; Function Attrs: nounwind sspstrong uwtable
define dso_local ptr @migration_incoming_get_current() #0 {
entry:
  %0 = load ptr, ptr @current_incoming, align 8
  %tobool = icmp ne ptr %0, null
  br i1 %tobool, label %if.then, label %if.else

if.then:                                          ; preds = %entry
  br label %if.end

if.else:                                          ; preds = %entry
  call void @__assert_fail(ptr noundef @.str.6, ptr noundef @.str.2, i32 noundef 252, ptr noundef @__PRETTY_FUNCTION__.migration_incoming_get_current) #13
  unreachable

if.end:                                           ; preds = %if.then
  %1 = load ptr, ptr @current_incoming, align 8
  ret ptr %1
}

; Function Attrs: nounwind sspstrong uwtable
define dso_local ptr @migrate_get_current() #0 {
entry:
  %0 = load ptr, ptr @current_migration, align 8
  %tobool = icmp ne ptr %0, null
  br i1 %tobool, label %if.then, label %if.else

if.then:                                          ; preds = %entry
  br label %if.end

if.else:                                          ; preds = %entry
  call void @__assert_fail(ptr noundef @.str.5, ptr noundef @.str.2, i32 noundef 246, ptr noundef @__PRETTY_FUNCTION__.migrate_get_current) #13
  unreachable

if.end:                                           ; preds = %if.then
  %1 = load ptr, ptr @current_migration, align 8
  ret ptr %1
}

; Function Attrs: nounwind sspstrong uwtable
define dso_local void @qmp_migrate_pause(ptr noundef %errp) #0 {
entry:
  %errp.addr = alloca ptr, align 8
  %ms = alloca ptr, align 8
  %mis = alloca ptr, align 8
  %ret = alloca i32, align 4
  %error = alloca ptr, align 8
  %_f = alloca ptr, align 8
  %tmp = alloca ptr, align 8
  %atomic-temp = alloca ptr, align 8
  store ptr %errp, ptr %errp.addr, align 8
  %call = call ptr @migrate_get_current()
  store ptr %call, ptr %ms, align 8
  %call1 = call ptr @migration_incoming_get_current()
  store ptr %call1, ptr %mis, align 8
  store i32 0, ptr %ret, align 4
  %0 = load ptr, ptr %ms, align 8
  %state = getelementptr inbounds %struct.MigrationState, ptr %0, i32 0, i32 16
  %1 = load i32, ptr %state, align 8
  %call2 = call zeroext i1 @migration_postcopy_is_alive(i32 noundef %1)
  br i1 %call2, label %if.then, label %if.end10

if.then:                                          ; preds = %entry
  store ptr null, ptr %error, align 8
  call void (ptr, ptr, i32, ptr, ptr, ...) @error_setg_internal(ptr noundef %error, ptr noundef @.str.2, i32 noundef 1785, ptr noundef @__func__.qmp_migrate_pause, ptr noundef @.str.31)
  %2 = load ptr, ptr %ms, align 8
  %3 = load ptr, ptr %error, align 8
  call void @migrate_set_error(ptr noundef %2, ptr noundef %3)
  %4 = load ptr, ptr %error, align 8
  call void @error_free(ptr noundef %4)
  br label %while.cond

while.cond:                                       ; preds = %do.end, %if.then
  br i1 false, label %while.body, label %while.end

while.body:                                       ; preds = %while.cond
  br label %do.body

do.body:                                          ; preds = %while.body
  call void @g_assertion_message_expr(ptr noundef null, ptr noundef @.str.2, i32 noundef 1789, ptr noundef @__func__.qmp_migrate_pause, ptr noundef null) #16
  unreachable

do.end:                                           ; No predecessors!
  br label %while.cond

while.end:                                        ; preds = %while.cond
  %5 = load atomic i64, ptr @qemu_mutex_lock_func monotonic, align 8
  store i64 %5, ptr %atomic-temp, align 8
  %6 = load ptr, ptr %atomic-temp, align 8
  store ptr %6, ptr %tmp, align 8
  %7 = load ptr, ptr %tmp, align 8
  store ptr %7, ptr %_f, align 8
  %8 = load ptr, ptr %_f, align 8
  %9 = load ptr, ptr %ms, align 8
  %qemu_file_lock = getelementptr inbounds %struct.MigrationState, ptr %9, i32 0, i32 8
  call void %8(ptr noundef %qemu_file_lock, ptr noundef @.str.2, i32 noundef 1789)
  %10 = load ptr, ptr %ms, align 8
  %to_dst_file = getelementptr inbounds %struct.MigrationState, ptr %10, i32 0, i32 4
  %11 = load ptr, ptr %to_dst_file, align 8
  %tobool = icmp ne ptr %11, null
  br i1 %tobool, label %if.then3, label %if.end

if.then3:                                         ; preds = %while.end
  %12 = load ptr, ptr %ms, align 8
  %to_dst_file4 = getelementptr inbounds %struct.MigrationState, ptr %12, i32 0, i32 4
  %13 = load ptr, ptr %to_dst_file4, align 8
  %call5 = call i32 @qemu_file_shutdown(ptr noundef %13)
  store i32 %call5, ptr %ret, align 4
  br label %if.end

if.end:                                           ; preds = %if.then3, %while.end
  %14 = load ptr, ptr %ms, align 8
  %qemu_file_lock6 = getelementptr inbounds %struct.MigrationState, ptr %14, i32 0, i32 8
  call void @qemu_mutex_unlock_impl(ptr noundef %qemu_file_lock6, ptr noundef @.str.2, i32 noundef 1793)
  %15 = load i32, ptr %ret, align 4
  %tobool7 = icmp ne i32 %15, 0
  br i1 %tobool7, label %if.then8, label %if.end9

if.then8:                                         ; preds = %if.end
  %16 = load ptr, ptr %errp.addr, align 8
  call void (ptr, ptr, i32, ptr, ptr, ...) @error_setg_internal(ptr noundef %16, ptr noundef @.str.2, i32 noundef 1795, ptr noundef @__func__.qmp_migrate_pause, ptr noundef @.str.32)
  br label %if.end9

if.end9:                                          ; preds = %if.then8, %if.end
  %17 = load ptr, ptr %ms, align 8
  call void @migration_rp_kick(ptr noundef %17)
  br label %return

if.end10:                                         ; preds = %entry
  %18 = load ptr, ptr %mis, align 8
  %state11 = getelementptr inbounds %struct.MigrationIncomingState, ptr %18, i32 0, i32 28
  %19 = load i32, ptr %state11, align 8
  %call12 = call zeroext i1 @migration_postcopy_is_alive(i32 noundef %19)
  br i1 %call12, label %if.then13, label %if.end18

if.then13:                                        ; preds = %if.end10
  %20 = load ptr, ptr %mis, align 8
  %from_src_file = getelementptr inbounds %struct.MigrationIncomingState, ptr %20, i32 0, i32 0
  %21 = load ptr, ptr %from_src_file, align 8
  %call14 = call i32 @qemu_file_shutdown(ptr noundef %21)
  store i32 %call14, ptr %ret, align 4
  %22 = load i32, ptr %ret, align 4
  %tobool15 = icmp ne i32 %22, 0
  br i1 %tobool15, label %if.then16, label %if.end17

if.then16:                                        ; preds = %if.then13
  %23 = load ptr, ptr %errp.addr, align 8
  call void (ptr, ptr, i32, ptr, ptr, ...) @error_setg_internal(ptr noundef %23, ptr noundef @.str.2, i32 noundef 1810, ptr noundef @__func__.qmp_migrate_pause, ptr noundef @.str.33)
  br label %if.end17

if.end17:                                         ; preds = %if.then16, %if.then13
  br label %return

if.end18:                                         ; preds = %if.end10
  %24 = load ptr, ptr %errp.addr, align 8
  call void (ptr, ptr, i32, ptr, ptr, ...) @error_setg_internal(ptr noundef %24, ptr noundef @.str.2, i32 noundef 1816, ptr noundef @__func__.qmp_migrate_pause, ptr noundef @.str.34)
  br label %return

return:                                           ; preds = %if.end18, %if.end17, %if.end9
  ret void
}