; Function Attrs: nounwind sspstrong uwtable
define dso_local void @qmp_migrate_pause(ptr noundef %errp) local_unnamed_addr #0 {
entry:
  %error = alloca ptr, align 8
  %0 = load ptr, ptr @current_migration, align 8
  %tobool.not.i = icmp eq ptr %0, null
  br i1 %tobool.not.i, label %if.else.i, label %migrate_get_current.exit

if.else.i:                                        ; preds = %entry
  tail call void @__assert_fail(ptr noundef nonnull @.str.5, ptr noundef nonnull @.str.2, i32 noundef 246, ptr noundef nonnull @__PRETTY_FUNCTION__.migrate_get_current) #20
  unreachable

migrate_get_current.exit:                         ; preds = %entry
  %1 = load ptr, ptr @current_incoming, align 8
  %tobool.not.i11 = icmp eq ptr %1, null
  br i1 %tobool.not.i11, label %if.else.i12, label %migration_incoming_get_current.exit

if.else.i12:                                      ; preds = %migrate_get_current.exit
  tail call void @__assert_fail(ptr noundef nonnull @.str.6, ptr noundef nonnull @.str.2, i32 noundef 252, ptr noundef nonnull @__PRETTY_FUNCTION__.migration_incoming_get_current) #20
  unreachable

migration_incoming_get_current.exit:              ; preds = %migrate_get_current.exit
  %state = getelementptr inbounds nuw i8, ptr %0, i64 776
  %2 = load i32, ptr %state, align 8
  %3 = add i32 %2, -5
  %switch.and.i = and i32 %3, -3
  %switch.selectcmp.i = icmp eq i32 %switch.and.i, 0
  br i1 %switch.selectcmp.i, label %if.then, label %if.end10

if.then:                                          ; preds = %migration_incoming_get_current.exit
  store ptr null, ptr %error, align 8
  call void (ptr, ptr, i32, ptr, ptr, ...) @error_setg_internal(ptr noundef nonnull %error, ptr noundef nonnull @.str.2, i32 noundef 1785, ptr noundef nonnull @__func__.qmp_migrate_pause, ptr noundef nonnull @.str.31) #19
  %4 = load ptr, ptr %error, align 8
  %error_mutex.i = getelementptr inbounds nuw i8, ptr %0, i64 1488
  %5 = load atomic i64, ptr @qemu_mutex_lock_func monotonic, align 8
  %6 = inttoptr i64 %5 to ptr
  call void %6(ptr noundef nonnull %error_mutex.i, ptr noundef nonnull @.str.53, i32 noundef 122) #19
  %error3.i = getelementptr inbounds nuw i8, ptr %0, i64 1480
  %7 = load ptr, ptr %error3.i, align 8
  %tobool.not.i13 = icmp eq ptr %7, null
  br i1 %tobool.not.i13, label %if.then.i, label %migrate_set_error.exit

if.then.i:                                        ; preds = %if.then
  %call4.i = call ptr @error_copy(ptr noundef %4) #19
  store ptr %call4.i, ptr %error3.i, align 8
  br label %migrate_set_error.exit

migrate_set_error.exit:                           ; preds = %if.then, %if.then.i
  call void @qemu_mutex_unlock_impl(ptr noundef nonnull %error_mutex.i, ptr noundef nonnull @.str.53, i32 noundef 132) #19
  %8 = load ptr, ptr %error, align 8
  call void @error_free(ptr noundef %8) #19
  %9 = load atomic i64, ptr @qemu_mutex_lock_func monotonic, align 8
  %10 = inttoptr i64 %9 to ptr
  %qemu_file_lock = getelementptr inbounds nuw i8, ptr %0, i64 320
  call void %10(ptr noundef nonnull %qemu_file_lock, ptr noundef nonnull @.str.2, i32 noundef 1789) #19
  %to_dst_file = getelementptr inbounds nuw i8, ptr %0, i64 184
  %11 = load ptr, ptr %to_dst_file, align 8
  %tobool.not = icmp eq ptr %11, null
  br i1 %tobool.not, label %if.end9.critedge, label %if.then3

if.then3:                                         ; preds = %migrate_set_error.exit
  %call5 = call i32 @qemu_file_shutdown(ptr noundef nonnull %11) #19
  %12 = icmp eq i32 %call5, 0
  call void @qemu_mutex_unlock_impl(ptr noundef nonnull %qemu_file_lock, ptr noundef nonnull @.str.2, i32 noundef 1793) #19
  br i1 %12, label %if.end9, label %if.then8

if.then8:                                         ; preds = %if.then3
  call void (ptr, ptr, i32, ptr, ptr, ...) @error_setg_internal(ptr noundef %errp, ptr noundef nonnull @.str.2, i32 noundef 1795, ptr noundef nonnull @__func__.qmp_migrate_pause, ptr noundef nonnull @.str.32) #19
  br label %if.end9

if.end9.critedge:                                 ; preds = %migrate_set_error.exit
  call void @qemu_mutex_unlock_impl(ptr noundef nonnull %qemu_file_lock, ptr noundef nonnull @.str.2, i32 noundef 1793) #19
  br label %if.end9

if.end9:                                          ; preds = %if.end9.critedge, %if.then8, %if.then3
  %rp_sem.i = getelementptr inbounds nuw i8, ptr %0, i64 808
  call void @qemu_sem_post(ptr noundef nonnull %rp_sem.i) #19
  br label %return

if.end10:                                         ; preds = %migration_incoming_get_current.exit
  %state11 = getelementptr inbounds nuw i8, ptr %1, i64 568
  %13 = load i32, ptr %state11, align 8
  %14 = add i32 %13, -5
  %switch.and.i14 = and i32 %14, -3
  %switch.selectcmp.i15 = icmp eq i32 %switch.and.i14, 0
  br i1 %switch.selectcmp.i15, label %if.then13, label %if.end18

if.then13:                                        ; preds = %if.end10
  %15 = load ptr, ptr %1, align 8
  %call14 = tail call i32 @qemu_file_shutdown(ptr noundef %15) #19
  %tobool15.not = icmp eq i32 %call14, 0
  br i1 %tobool15.not, label %return, label %if.then16

if.then16:                                        ; preds = %if.then13
  tail call void (ptr, ptr, i32, ptr, ptr, ...) @error_setg_internal(ptr noundef %errp, ptr noundef nonnull @.str.2, i32 noundef 1810, ptr noundef nonnull @__func__.qmp_migrate_pause, ptr noundef nonnull @.str.33) #19
  br label %return

if.end18:                                         ; preds = %if.end10
  tail call void (ptr, ptr, i32, ptr, ptr, ...) @error_setg_internal(ptr noundef %errp, ptr noundef nonnull @.str.2, i32 noundef 1816, ptr noundef nonnull @__func__.qmp_migrate_pause, ptr noundef nonnull @.str.34) #19
  br label %return

return:                                           ; preds = %if.then13, %if.then16, %if.end18, %if.end9
  ret void
}